target datalayout = "e-m:e-p270:32:32-p271:32:32-p272:64:64-i64:64-i128:128-f80:128-n8:16:32:64-S128"
target triple = "x86_64-pc-linux-gnu"

%struct.FFOutputFormat = type { %struct.AVOutputFormat, i32, i32, ptr, ptr, ptr, ptr, ptr, ptr, ptr, ptr, ptr, ptr, ptr, ptr }
%struct.AVOutputFormat = type { ptr, ptr, ptr, ptr, i32, i32, i32, i32, ptr, ptr }
%struct.AVFormatContext = type { ptr, ptr, ptr, ptr, ptr, i32, i32, ptr, i32, ptr, i32, ptr, ptr, i64, i64, i64, i32, i32, i32, i64, i64, ptr, i32, i32, ptr, i32, i32, i32, i32, ptr, i64, i32, i32, %struct.AVIOInterruptCB, i32, i32, i32, i32, i64, i32, i32, i32, i32, i32, i32, i32, i32, i32, i32, i32, i32, i64, i32, i32, i32, i32, i32, ptr, ptr, ptr, ptr, i32, ptr, ptr, ptr, ptr, i32, ptr, ptr, i64, ptr, ptr, ptr, i64 }
%struct.AVIOInterruptCB = type { ptr, ptr }
%struct.SegmentContext = type { ptr, i32, i32, i32, i32, ptr, ptr, ptr, ptr, ptr, i32, i32, i32, i32, i64, i64, i64, i32, i32, ptr, i32, ptr, i64, i64, i32, i32, ptr, ptr, i32, ptr, ptr, i32, i32, i32, i64, i32, i32, ptr, i32, i64, ptr, i32, i64, i32, i32, i32, [1024 x i8], %struct.SegmentListEntry, ptr, ptr }
%struct.SegmentListEntry = type { i32, double, double, i64, i64, ptr, ptr, i64 }
%struct.AVRational = type { i32, i32 }
%struct.AVPacket = type { ptr, i64, i64, ptr, i32, i32, i32, ptr, i32, i64, i64, ptr, ptr, %struct.AVRational }
%struct.AVStream = type { ptr, i32, i32, ptr, ptr, %struct.AVRational, i64, i64, i64, i32, i32, %struct.AVRational, ptr, %struct.AVRational, %struct.AVPacket, i32, %struct.AVRational, i32 }
%struct.FFStream = type { %struct.AVStream, ptr, i32, ptr, i32, ptr, i32, %struct.anon, i32, i32, %struct.FFFrac, ptr, ptr, i32, i32, i64, i64, i32, i32, i32, i64, i64, i64, i32, i64, i64, i64, i32, i32, [17 x i64], [17 x i8], [17 x i64], i64, i8, i8, %struct.AVRational, %struct.AVProbeData, ptr, i64, i32, i32, i32, ptr, i32, i32, i64, i64, ptr, %struct.AVRational }
%struct.anon = type { ptr, i32 }
%struct.FFFrac = type { i64, i64, i64 }
%struct.AVProbeData = type { ptr, ptr, i32, ptr }

; Function Attrs: alwaysinline nounwind uwtable
define internal ptr @ffstream(ptr noundef %0) #11 {
  %2 = alloca ptr, align 8
  store ptr %0, ptr %2, align 8, !tbaa !54
  %3 = load ptr, ptr %2, align 8, !tbaa !54
  ret ptr %3
}

; Function Attrs: inlinehint nounwind uwtable
define internal ptr @ffofmt(ptr noundef %0) #6 {
  %2 = alloca ptr, align 8
  store ptr %0, ptr %2, align 8, !tbaa !171
  %3 = load ptr, ptr %2, align 8, !tbaa !171
  ret ptr %3
}

; Function Attrs: nounwind uwtable
define internal i32 @seg_check_bitstream(ptr noundef %0, ptr noundef %1, ptr noundef %2) #0 {
  %4 = alloca i32, align 4
  %5 = alloca ptr, align 8
  %6 = alloca ptr, align 8
  %7 = alloca ptr, align 8
  %8 = alloca ptr, align 8
  %9 = alloca ptr, align 8
  %10 = alloca ptr, align 8
  %11 = alloca i32, align 4
  %12 = alloca ptr, align 8
  %13 = alloca ptr, align 8
  %14 = alloca i32, align 4
  store ptr %0, ptr %5, align 8, !tbaa !4
  store ptr %1, ptr %6, align 8, !tbaa !54
  store ptr %2, ptr %7, align 8, !tbaa !46
  call void @llvm.lifetime.start.p0(i64 8, ptr %8) #12
  %15 = load ptr, ptr %5, align 8, !tbaa !4
  %16 = getelementptr inbounds nuw %struct.AVFormatContext, ptr %15, i32 0, i32 3
  %17 = load ptr, ptr %16, align 8, !tbaa !9
  store ptr %17, ptr %8, align 8, !tbaa !26
  call void @llvm.lifetime.start.p0(i64 8, ptr %9) #12
  %18 = load ptr, ptr %8, align 8, !tbaa !26
  %19 = getelementptr inbounds nuw %struct.SegmentContext, ptr %18, i32 0, i32 6
  %20 = load ptr, ptr %19, align 8, !tbaa !28
  store ptr %20, ptr %9, align 8, !tbaa !4
  %21 = load ptr, ptr %9, align 8, !tbaa !4
  %22 = getelementptr inbounds nuw %struct.AVFormatContext, ptr %21, i32 0, i32 2
  %23 = load ptr, ptr %22, align 8, !tbaa !104
  %24 = call ptr @ffofmt(ptr noundef %23)
  %25 = getelementptr inbounds nuw %struct.FFOutputFormat, ptr %24, i32 0, i32 14
  %26 = load ptr, ptr %25, align 8, !tbaa !134
  %27 = icmp ne ptr %26, null
  br i1 %27, label %28, label %64

28:                                               ; preds = %3
  call void @llvm.lifetime.start.p0(i64 8, ptr %10) #12
  %29 = load ptr, ptr %9, align 8, !tbaa !4
  %30 = getelementptr inbounds nuw %struct.AVFormatContext, ptr %29, i32 0, i32 7
  %31 = load ptr, ptr %30, align 8, !tbaa !48
  %32 = load ptr, ptr %6, align 8, !tbaa !54
  %33 = getelementptr inbounds nuw %struct.AVStream, ptr %32, i32 0, i32 1
  %34 = load i32, ptr %33, align 8, !tbaa !109
  %35 = sext i32 %34 to i64
  %36 = getelementptr inbounds ptr, ptr %31, i64 %35
  %37 = load ptr, ptr %36, align 8, !tbaa !54
  store ptr %37, ptr %10, align 8, !tbaa !54
  call void @llvm.lifetime.start.p0(i64 4, ptr %11) #12
  %38 = load ptr, ptr %9, align 8, !tbaa !4
  %39 = getelementptr inbounds nuw %struct.AVFormatContext, ptr %38, i32 0, i32 2
  %40 = load ptr, ptr %39, align 8, !tbaa !104
  %41 = call ptr @ffofmt(ptr noundef %40)
  %42 = getelementptr inbounds nuw %struct.FFOutputFormat, ptr %41, i32 0, i32 14
  %43 = load ptr, ptr %42, align 8, !tbaa !134
  %44 = load ptr, ptr %9, align 8, !tbaa !4
  %45 = load ptr, ptr %10, align 8, !tbaa !54
  %46 = load ptr, ptr %7, align 8, !tbaa !46
  %47 = call i32 %43(ptr noundef %44, ptr noundef %45, ptr noundef %46)
  store i32 %47, ptr %11, align 4, !tbaa !36
  %48 = load i32, ptr %11, align 4, !tbaa !36
  %49 = icmp eq i32 %48, 1
  br i1 %49, label %50, label %62

50:                                               ; preds = %28
  call void @llvm.lifetime.start.p0(i64 8, ptr %12) #12
  %51 = load ptr, ptr %6, align 8, !tbaa !54
  %52 = call ptr @ffstream(ptr noundef %51)
  store ptr %52, ptr %12, align 8, !tbaa !135
  call void @llvm.lifetime.start.p0(i64 8, ptr %13) #12
  %53 = load ptr, ptr %10, align 8, !tbaa !54
  %54 = call ptr @ffstream(ptr noundef %53)
  store ptr %54, ptr %13, align 8, !tbaa !135
  %55 = load ptr, ptr %13, align 8, !tbaa !135
  %56 = getelementptr inbounds nuw %struct.FFStream, ptr %55, i32 0, i32 3
  %57 = load ptr, ptr %56, align 8, !tbaa !137
  %58 = load ptr, ptr %12, align 8, !tbaa !135
  %59 = getelementptr inbounds nuw %struct.FFStream, ptr %58, i32 0, i32 3
  store ptr %57, ptr %59, align 8, !tbaa !137
  %60 = load ptr, ptr %13, align 8, !tbaa !135
  %61 = getelementptr inbounds nuw %struct.FFStream, ptr %60, i32 0, i32 3
  store ptr null, ptr %61, align 8, !tbaa !137
  call void @llvm.lifetime.end.p0(i64 8, ptr %13) #12
  call void @llvm.lifetime.end.p0(i64 8, ptr %12) #12
  br label %62

62:                                               ; preds = %50, %28
  %63 = load i32, ptr %11, align 4, !tbaa !36
  store i32 %63, ptr %4, align 4
  store i32 1, ptr %14, align 4
  call void @llvm.lifetime.end.p0(i64 4, ptr %11) #12
  call void @llvm.lifetime.end.p0(i64 8, ptr %10) #12
  br label %65

64:                                               ; preds = %3
  store i32 1, ptr %4, align 4
  store i32 1, ptr %14, align 4
  br label %65

65:                                               ; preds = %64, %62
  call void @llvm.lifetime.end.p0(i64 8, ptr %9) #12
  call void @llvm.lifetime.end.p0(i64 8, ptr %8) #12
  %66 = load i32, ptr %4, align 4
  ret i32 %66
}