; Function Attrs: nounwind uwtable
define internal i32 @seg_check_bitstream(ptr noundef readonly captures(none) %0, ptr noundef captures(none) %1, ptr noundef %2) #0 {
  %4 = getelementptr inbounds nuw i8, ptr %0, i64 24
  %5 = load ptr, ptr %4, align 8, !tbaa !4
  %6 = getelementptr inbounds nuw i8, ptr %5, i64 32
  %7 = load ptr, ptr %6, align 8, !tbaa !24
  %8 = getelementptr inbounds nuw i8, ptr %7, i64 16
  %9 = load ptr, ptr %8, align 8, !tbaa !91
  %10 = getelementptr inbounds nuw i8, ptr %9, i64 160
  %11 = load ptr, ptr %10, align 8, !tbaa !140
  %.not = icmp eq ptr %11, null
  br i1 %.not, label %26, label %12

12:                                               ; preds = %3
  %13 = getelementptr inbounds nuw i8, ptr %7, i64 48
  %14 = load ptr, ptr %13, align 8, !tbaa !43
  %15 = getelementptr inbounds nuw i8, ptr %1, i64 8
  %16 = load i32, ptr %15, align 8, !tbaa !105
  %17 = sext i32 %16 to i64
  %18 = getelementptr inbounds ptr, ptr %14, i64 %17
  %19 = load ptr, ptr %18, align 8, !tbaa !49
  %20 = tail call i32 %11(ptr noundef nonnull %7, ptr noundef %19, ptr noundef %2) #13
  %21 = icmp eq i32 %20, 1
  br i1 %21, label %22, label %26

22:                                               ; preds = %12
  %23 = getelementptr inbounds nuw i8, ptr %19, i64 232
  %24 = load ptr, ptr %23, align 8, !tbaa !141
  %25 = getelementptr inbounds nuw i8, ptr %1, i64 232
  store ptr %24, ptr %25, align 8, !tbaa !141
  store ptr null, ptr %23, align 8, !tbaa !141
  br label %26

26:                                               ; preds = %3, %12, %22
  %.0 = phi i32 [ 1, %22 ], [ %20, %12 ], [ 1, %3 ]
  ret i32 %.0
}